; Function Attrs: nounwind sspstrong uwtable
define internal fastcc i64 @num_members(i64 noundef %0) unnamed_addr #0 {
  %2 = load i64, ptr @id_members, align 8, !tbaa !7
  %3 = tail call i64 @rb_attr_get(i64 noundef %0, i64 noundef %2) #19
  %4 = icmp eq i64 %3, 4
  br i1 %4, label %.preheader.i, label %struct_ivar_get.exit

.preheader.i:                                     ; preds = %1, %12
  %.016.i = phi i64 [ %5, %12 ], [ %0, %1 ]
  %5 = tail call i64 @rb_class_superclass(i64 noundef %.016.i) #20
  %6 = load i64, ptr @rb_cStruct, align 8, !tbaa !7
  %7 = icmp ne i64 %5, %6
  %8 = load i64, ptr @rb_cData, align 8
  %9 = icmp ne i64 %5, %8
  %or.cond.not22.i = select i1 %7, i1 %9, i1 false
  %10 = and i64 %5, -5
  %11 = icmp ne i64 %10, 0
  %or.cond20.i = and i1 %11, %or.cond.not22.i
  br i1 %or.cond20.i, label %12, label %rbimpl_RB_TYPE_P_fastpath.exit.thread

12:                                               ; preds = %.preheader.i
  %13 = tail call i64 @rb_attr_get(i64 noundef %5, i64 noundef %2) #19
  %14 = icmp eq i64 %13, 4
  br i1 %14, label %.preheader.i, label %15

15:                                               ; preds = %12
  %16 = tail call i64 @rb_ivar_set(i64 noundef %0, i64 noundef %2, i64 noundef %13) #19
  br label %struct_ivar_get.exit

struct_ivar_get.exit:                             ; preds = %1, %15
  %.0.i3 = phi i64 [ %16, %15 ], [ %3, %1 ]
  %17 = icmp eq i64 %.0.i3, 0
  %18 = and i64 %.0.i3, 7
  %19 = icmp ne i64 %18, 0
  %20 = or i1 %17, %19
  br i1 %20, label %rbimpl_RB_TYPE_P_fastpath.exit.thread, label %rbimpl_RB_TYPE_P_fastpath.exit

rbimpl_RB_TYPE_P_fastpath.exit:                   ; preds = %struct_ivar_get.exit
  %21 = inttoptr i64 %.0.i3 to ptr
  %22 = load i64, ptr %21, align 8, !tbaa !11
  %23 = and i64 %22, 31
  %24 = icmp eq i64 %23, 7
  br i1 %24, label %26, label %rbimpl_RB_TYPE_P_fastpath.exit.thread

rbimpl_RB_TYPE_P_fastpath.exit.thread:            ; preds = %.preheader.i, %struct_ivar_get.exit, %rbimpl_RB_TYPE_P_fastpath.exit
  %25 = load i64, ptr @rb_eTypeError, align 8, !tbaa !7
  tail call void (i64, ptr, ...) @rb_raise(i64 noundef %25, ptr noundef nonnull @.str.45) #21
  unreachable

26:                                               ; preds = %rbimpl_RB_TYPE_P_fastpath.exit
  %27 = and i64 %22, 8192
  %.not.i = icmp eq i64 %27, 0
  br i1 %.not.i, label %31, label %28

28:                                               ; preds = %26
  %29 = lshr i64 %22, 15
  %30 = and i64 %29, 127
  br label %rb_array_len.exit

31:                                               ; preds = %26
  %32 = getelementptr inbounds nuw i8, ptr %21, i64 16
  %33 = load i64, ptr %32, align 8, !tbaa !13
  br label %rb_array_len.exit

rb_array_len.exit:                                ; preds = %28, %31
  %.0.i4 = phi i64 [ %30, %28 ], [ %33, %31 ]
  ret i64 %.0.i4
}